Certificate:
    Data:
        Version: 3 (0x2)
        Serial Number:
            89:a4:9f:33:f3:17:7c:7a
    Signature Algorithm: sha1WithRSAEncryption
        Issuer: C=JP, ST=Gunma, O=Yoshikuni, CN=oreore2
        Validity
            Not Before: Sep  7 07:04:25 2015 GMT
            Not After : Sep  6 07:04:25 2018 GMT
        Subject: C=JP, ST=Gunma, O=Yoshikuni, CN=oreore2
        Subject Public Key Info:
            Public Key Algorithm: rsaEncryption
                Public-Key: (2048 bit)
                Modulus:
                    00:af:57:04:6a:f1:d8:0a:4c:56:99:aa:ec:19:54:
                    8d:96:18:d7:de:93:48:5a:af:d2:7d:c1:0a:8c:b6:
                    0f:47:6b:11:d3:ef:0c:09:76:77:b8:11:e2:ad:5c:
                    ff:30:a5:70:dc:cc:06:8b:10:3d:af:27:55:0a:b9:
                    6d:aa:9f:26:e5:6a:55:4e:b0:87:1d:80:b9:1c:86:
                    26:1b:10:4e:74:ca:1f:70:b2:e7:08:77:67:14:82:
                    53:e1:47:ae:c7:01:39:ca:f0:78:12:4e:49:fc:ea:
                    b1:f2:2c:ac:85:fe:61:10:d9:6c:16:91:37:b8:94:
                    e9:57:2b:70:a2:84:62:e8:c7:48:29:31:7b:12:35:
                    30:64:52:63:92:af:5c:30:12:af:93:3c:c3:92:aa:
                    0f:f5:16:f8:20:10:61:d6:2f:08:c5:0f:cf:84:da:
                    8a:95:87:e8:9f:ea:66:60:80:19:3c:94:2d:1f:33:
                    1a:ee:b1:4b:7f:28:30:0d:c5:a9:36:f6:2d:f8:18:
                    ca:e1:9f:cd:7d:0e:09:56:1d:0a:82:7a:0e:14:b3:
                    a6:8a:73:f0:0e:09:7e:b3:31:4b:c3:06:c4:02:5a:
                    d3:d5:71:93:58:65:d4:5b:e8:67:30:d2:2e:0a:a5:
                    1f:11:14:88:77:f5:7b:69:d7:b5:a4:f7:94:66:57:
                    fa:0d
                Exponent: 65537 (0x10001)
        X509v3 extensions:
            X509v3 Subject Key Identifier: 
                FA:C1:F2:67:77:49:19:E0:B7:55:ED:3C:55:8B:4E:5D:03:A5:33:EA
            X509v3 Authority Key Identifier: 
                keyid:FA:C1:F2:67:77:49:19:E0:B7:55:ED:3C:55:8B:4E:5D:03:A5:33:EA

            X509v3 Basic Constraints: 
                CA:TRUE
    Signature Algorithm: sha1WithRSAEncryption
         33:bb:2f:b1:c6:f7:57:96:a6:f6:da:4d:ff:b6:eb:50:6e:92:
         35:11:8c:b7:74:9f:92:80:b5:aa:f1:4c:de:d6:96:31:fa:9a:
         df:1b:9a:35:14:74:4d:9a:88:56:19:6e:d2:7d:f6:9e:67:a7:
         07:1d:33:ba:5b:07:53:6d:b4:63:d2:eb:ce:7f:a7:b5:9f:ad:
         ed:41:9a:3e:d9:b7:66:d6:17:cc:5d:a6:e8:1b:54:53:b1:d5:
         f9:22:ef:03:00:86:46:2b:33:35:a2:d6:4c:23:5e:7d:bd:2a:
         3c:6b:b4:86:78:14:12:15:bd:6c:4f:27:46:04:87:af:d8:0a:
         76:a6:b9:15:1c:1c:b8:f1:01:9e:49:ec:82:8c:e8:92:a9:7e:
         7f:b4:76:28:bb:95:17:c9:b8:f4:c8:81:79:6e:50:0b:67:71:
         16:25:f2:ee:b5:bf:a7:ee:77:0b:94:60:3f:ad:c9:7d:be:6f:
         ac:84:c0:67:19:3e:5a:4c:38:fc:75:c9:5c:29:56:bc:67:f1:
         e2:0f:a0:0b:e7:2f:53:ff:5a:c0:d8:2c:ca:8b:30:0d:18:a2:
         9a:38:9d:3e:5f:a0:c5:4c:09:f2:e7:4e:00:56:25:9c:a9:02:
         ed:41:4a:95:c7:f9:e2:fa:3f:f7:7f:df:a9:25:c6:60:61:71:
         a4:36:3b:85
-----BEGIN CERTIFICATE-----
MIIDWTCCAkGgAwIBAgIJAImknzPzF3x6MA0GCSqGSIb3DQEBBQUAMEMxCzAJBgNV
BAYTAkpQMQ4wDAYDVQQIDAVHdW5tYTESMBAGA1UECgwJWW9zaGlrdW5pMRAwDgYD
VQQDDAdvcmVvcmUyMB4XDTE1MDkwNzA3MDQyNVoXDTE4MDkwNjA3MDQyNVowQzEL
MAkGA1UEBhMCSlAxDjAMBgNVBAgMBUd1bm1hMRIwEAYDVQQKDAlZb3NoaWt1bmkx
EDAOBgNVBAMMB29yZW9yZTIwggEiMA0GCSqGSIb3DQEBAQUAA4IBDwAwggEKAoIB
AQCvVwRq8dgKTFaZquwZVI2WGNfek0har9J9wQqMtg9HaxHT7wwJdne4EeKtXP8w
pXDczAaLED2vJ1UKuW2qnyblalVOsIcdgLkchiYbEE50yh9wsucId2cUglPhR67H
ATnK8HgSTkn86rHyLKyF/mEQ2WwWkTe4lOlXK3CihGLox0gpMXsSNTBkUmOSr1ww
Eq+TPMOSqg/1FvggEGHWLwjFD8+E2oqVh+if6mZggBk8lC0fMxrusUt/KDANxak2
9i34GMrhn819DglWHQqCeg4Us6aKc/AOCX6zMUvDBsQCWtPVcZNYZdRb6Gcw0i4K
pR8RFIh39Xtp17Wk95RmV/oNAgMBAAGjUDBOMB0GA1UdDgQWBBT6wfJnd0kZ4LdV
7TxVi05dA6Uz6jAfBgNVHSMEGDAWgBT6wfJnd0kZ4LdV7TxVi05dA6Uz6jAMBgNV
HRMEBTADAQH/MA0GCSqGSIb3DQEBBQUAA4IBAQAzuy+xxvdXlqb22k3/tutQbpI1
EYy3dJ+SgLWq8Uze1pYx+prfG5o1FHRNmohWGW7SffaeZ6cHHTO6WwdTbbRj0uvO
f6e1n63tQZo+2bdm1hfMXaboG1RTsdX5Iu8DAIZGKzM1otZMI159vSo8a7SGeBQS
Fb1sTydGBIev2Ap2prkVHBy48QGeSeyCjOiSqX5/tHYou5UXybj0yIF5blALZ3EW
JfLutb+n7ncLlGA/rcl9vm+shMBnGT5aTDj8dclcKVa8Z/HiD6AL5y9T/1rA2CzK
izANGKKaOJ0+X6DFTAny504AViWcqQLtQUqVx/ni+j/3f9+pJcZgYXGkNjuF
-----END CERTIFICATE-----
