Certificate:
    Data:
        Version: 3 (0x2)
        Serial Number:
            89:a4:9f:33:f3:17:7c:7b
    Signature Algorithm: sha1WithRSAEncryption
        Issuer: C=JP, ST=Gunma, O=Yoshikuni, CN=oreore2
        Validity
            Not Before: Sep  7 07:05:13 2015 GMT
            Not After : Sep  6 07:05:13 2016 GMT
        Subject: C=JP, ST=Gunma, O=Yoshikuni, CN=localhost
        Subject Public Key Info:
            Public Key Algorithm: rsaEncryption
                Public-Key: (2048 bit)
                Modulus:
                    00:df:8f:74:f7:e0:fb:0a:40:31:e2:78:81:bb:73:
                    1e:c6:d8:f6:fb:07:34:80:f7:2d:3e:29:e5:b2:9e:
                    1b:69:d3:71:7a:0d:04:92:97:3b:f0:04:27:dd:b5:
                    b1:a5:2b:fd:bd:16:ea:28:98:96:6c:d6:0a:c8:c6:
                    87:34:de:3d:3c:f1:c1:c6:73:65:5c:a2:42:d8:df:
                    58:fc:2b:1b:21:52:c8:f9:2d:eb:a6:cc:d6:85:9f:
                    d9:5a:4a:44:c0:02:cb:87:6d:e5:cb:73:76:02:b9:
                    51:ad:75:3d:7b:48:e5:ce:17:8d:32:c8:66:5f:a8:
                    01:e9:33:50:10:ab:60:f2:0c:b4:c8:a3:f2:f8:32:
                    a8:ba:bd:d6:34:51:48:0e:2c:fa:fd:c9:e9:06:12:
                    4a:8c:13:32:cf:ef:c8:31:70:61:21:d6:88:25:a2:
                    5b:48:d9:86:91:c3:4d:ba:d3:c0:80:8b:37:27:73:
                    ea:b1:cd:ce:fc:e6:83:73:f7:f8:1e:e4:64:96:c5:
                    11:51:2a:95:e4:c3:98:39:b1:4b:21:8a:e2:f6:fe:
                    a2:55:62:15:c8:ef:b2:1a:8f:37:f3:58:6e:6b:14:
                    b9:6e:2c:73:6f:52:db:57:34:97:08:72:db:2c:a7:
                    59:0e:ef:c5:2d:0e:4a:b6:66:8f:83:86:99:07:ca:
                    9a:dd
                Exponent: 65537 (0x10001)
        X509v3 extensions:
            X509v3 Basic Constraints: 
                CA:FALSE
            Netscape Comment: 
                OpenSSL Generated Certificate
            X509v3 Subject Key Identifier: 
                8B:C3:43:CE:AB:EA:70:EE:E4:BF:34:2C:E5:4D:F0:06:EB:A3:56:1D
            X509v3 Authority Key Identifier: 
                keyid:FA:C1:F2:67:77:49:19:E0:B7:55:ED:3C:55:8B:4E:5D:03:A5:33:EA

    Signature Algorithm: sha1WithRSAEncryption
         43:3f:27:6f:01:45:d2:3d:61:de:09:79:7c:b7:26:1e:ca:3d:
         70:d9:56:d5:c1:94:1e:20:e6:31:f6:83:0e:10:0b:ad:d7:5f:
         36:52:c7:6d:d3:34:68:7a:85:e8:6b:26:9c:d0:ee:a3:bd:c2:
         f8:69:9b:8e:ed:42:09:93:5a:90:58:bc:62:77:61:86:07:2c:
         66:bf:31:c7:57:3a:38:21:75:87:7a:6b:fd:85:1e:b2:e6:8f:
         4c:79:9b:4a:66:92:9a:f4:0d:5e:c1:d6:ec:b0:41:6b:6b:f0:
         84:af:30:fb:cc:a0:34:d6:9b:b1:78:bf:b1:45:6f:30:82:69:
         11:00:47:45:c2:5d:68:45:98:4f:51:fe:13:1c:14:9d:2f:fc:
         c6:e3:c7:07:ba:43:55:4d:da:52:02:01:cc:07:d2:cc:a2:87:
         dc:23:7d:84:8b:ec:d6:aa:7a:b5:56:e3:7f:ad:10:db:cb:05:
         97:f4:bc:23:0f:2a:c0:85:4e:c0:4c:1e:c6:1b:19:ce:c0:f9:
         17:10:9a:5e:0d:5e:f4:2e:5e:db:b7:75:68:27:15:a1:f7:e3:
         3b:57:20:24:d8:fe:46:13:8d:f9:b9:3f:6d:f4:cd:f0:79:0f:
         3f:0e:d8:59:b9:64:af:9f:88:1e:9b:48:05:5d:0a:c8:b8:6e:
         72:57:cf:d1
-----BEGIN CERTIFICATE-----
MIIDhjCCAm6gAwIBAgIJAImknzPzF3x7MA0GCSqGSIb3DQEBBQUAMEMxCzAJBgNV
BAYTAkpQMQ4wDAYDVQQIDAVHdW5tYTESMBAGA1UECgwJWW9zaGlrdW5pMRAwDgYD
VQQDDAdvcmVvcmUyMB4XDTE1MDkwNzA3MDUxM1oXDTE2MDkwNjA3MDUxM1owRTEL
MAkGA1UEBhMCSlAxDjAMBgNVBAgMBUd1bm1hMRIwEAYDVQQKDAlZb3NoaWt1bmkx
EjAQBgNVBAMMCWxvY2FsaG9zdDCCASIwDQYJKoZIhvcNAQEBBQADggEPADCCAQoC
ggEBAN+PdPfg+wpAMeJ4gbtzHsbY9vsHNID3LT4p5bKeG2nTcXoNBJKXO/AEJ921
saUr/b0W6iiYlmzWCsjGhzTePTzxwcZzZVyiQtjfWPwrGyFSyPkt66bM1oWf2VpK
RMACy4dt5ctzdgK5Ua11PXtI5c4XjTLIZl+oAekzUBCrYPIMtMij8vgyqLq91jRR
SA4s+v3J6QYSSowTMs/vyDFwYSHWiCWiW0jZhpHDTbrTwICLNydz6rHNzvzmg3P3
+B7kZJbFEVEqleTDmDmxSyGK4vb+olViFcjvshqPN/NYbmsUuW4sc29S21c0lwhy
2yynWQ7vxS0OSrZmj4OGmQfKmt0CAwEAAaN7MHkwCQYDVR0TBAIwADAsBglghkgB
hvhCAQ0EHxYdT3BlblNTTCBHZW5lcmF0ZWQgQ2VydGlmaWNhdGUwHQYDVR0OBBYE
FIvDQ86r6nDu5L80LOVN8Abro1YdMB8GA1UdIwQYMBaAFPrB8md3SRngt1XtPFWL
Tl0DpTPqMA0GCSqGSIb3DQEBBQUAA4IBAQBDPydvAUXSPWHeCXl8tyYeyj1w2VbV
wZQeIOYx9oMOEAut1182Usdt0zRoeoXoayac0O6jvcL4aZuO7UIJk1qQWLxid2GG
ByxmvzHHVzo4IXWHemv9hR6y5o9MeZtKZpKa9A1ewdbssEFra/CErzD7zKA01pux
eL+xRW8wgmkRAEdFwl1oRZhPUf4THBSdL/zG48cHukNVTdpSAgHMB9LMoofcI32E
i+zWqnq1VuN/rRDbywWX9LwjDyrAhU7ATB7GGxnOwPkXEJpeDV70Ll7bt3VoJxWh
9+M7VyAk2P5GE435uT9t9M3weQ8/DthZuWSvn4gem0gFXQrIuG5yV8/R
-----END CERTIFICATE-----
