Certificate:
    Data:
        Version: 3 (0x2)
        Serial Number:
            a6:ea:4f:7c:d6:d9:87:67
    Signature Algorithm: sha1WithRSAEncryption
        Issuer: C=JP, ST=Gunma, O=Yoshikuni Co.,Ltd., CN=skami4592.iocikun.jp
        Validity
            Not Before: Apr 26 02:13:01 2014 GMT
            Not After : Apr 25 02:13:01 2017 GMT
        Subject: C=JP, ST=Gunma, O=Yoshikuni Co.,Ltd., CN=skami4592.iocikun.jp
        Subject Public Key Info:
            Public Key Algorithm: rsaEncryption
                Public-Key: (1024 bit)
                Modulus:
                    00:f4:d1:4b:f7:1f:99:65:73:ea:df:4f:66:9d:90:
                    2a:1b:e5:31:b3:da:6c:35:07:a7:ff:3d:de:69:ff:
                    cc:24:fd:1c:58:c1:de:c5:33:c8:4d:60:06:a6:cf:
                    d9:30:bf:05:47:01:63:db:90:92:df:48:b5:8b:6d:
                    4a:00:d5:4e:66:47:a5:3b:c0:5f:f4:ea:34:71:f1:
                    fa:c5:0d:dd:c9:69:ef:20:ef:e0:a7:1c:c0:3a:9f:
                    6c:42:8b:cd:bb:82:44:e7:aa:e1:11:8e:34:f3:b7:
                    c7:73:2d:c6:c8:98:8a:66:68:68:30:1d:f2:0c:f7:
                    72:e6:06:76:fd:05:7d:ef:e9
                Exponent: 65537 (0x10001)
        X509v3 extensions:
            X509v3 Subject Key Identifier: 
                50:46:D5:F3:87:0B:5C:51:D0:A3:68:44:41:DB:D4:E3:89:DE:78:38
            X509v3 Authority Key Identifier: 
                keyid:50:46:D5:F3:87:0B:5C:51:D0:A3:68:44:41:DB:D4:E3:89:DE:78:38

            X509v3 Basic Constraints: 
                CA:TRUE
            X509v3 Key Usage: 
                Certificate Sign, CRL Sign
    Signature Algorithm: sha1WithRSAEncryption
         98:24:01:e7:4a:fa:7c:72:22:bc:eb:88:3d:6f:3e:8f:b0:9c:
         ed:98:93:95:09:7d:d5:cb:ba:fe:7b:7f:59:e0:6d:5a:cc:c6:
         df:98:1b:0b:5b:cc:a0:f8:ee:1b:c4:8c:a5:f2:ba:4c:54:b3:
         ff:3f:cc:b1:81:74:0a:5a:30:76:a8:99:fc:67:d4:27:6e:5c:
         a4:a2:30:93:f2:45:86:8c:0b:bc:cb:58:75:3e:05:cf:db:84:
         e8:39:04:f2:9c:e1:44:26:2b:93:5d:ce:e6:61:13:58:dd:45:
         38:39:33:66:71:ea:5b:d4:0e:40:32:94:83:b6:0f:2d:2a:29:
         9e:b4
-----BEGIN CERTIFICATE-----
MIICjTCCAfagAwIBAgIJAKbqT3zW2YdnMA0GCSqGSIb3DQEBBQUAMFkxCzAJBgNV
BAYTAkpQMQ4wDAYDVQQIDAVHdW5tYTEbMBkGA1UECgwSWW9zaGlrdW5pIENvLixM
dGQuMR0wGwYDVQQDDBRza2FtaTQ1OTIuaW9jaWt1bi5qcDAeFw0xNDA0MjYwMjEz
MDFaFw0xNzA0MjUwMjEzMDFaMFkxCzAJBgNVBAYTAkpQMQ4wDAYDVQQIDAVHdW5t
YTEbMBkGA1UECgwSWW9zaGlrdW5pIENvLixMdGQuMR0wGwYDVQQDDBRza2FtaTQ1
OTIuaW9jaWt1bi5qcDCBnzANBgkqhkiG9w0BAQEFAAOBjQAwgYkCgYEA9NFL9x+Z
ZXPq309mnZAqG+Uxs9psNQen/z3eaf/MJP0cWMHexTPITWAGps/ZML8FRwFj25CS
30i1i21KANVOZkelO8Bf9Oo0cfH6xQ3dyWnvIO/gpxzAOp9sQovNu4JE56rhEY40
87fHcy3GyJiKZmhoMB3yDPdy5gZ2/QV97+kCAwEAAaNdMFswHQYDVR0OBBYEFFBG
1fOHC1xR0KNoREHb1OOJ3ng4MB8GA1UdIwQYMBaAFFBG1fOHC1xR0KNoREHb1OOJ
3ng4MAwGA1UdEwQFMAMBAf8wCwYDVR0PBAQDAgEGMA0GCSqGSIb3DQEBBQUAA4GB
AJgkAedK+nxyIrzriD1vPo+wnO2Yk5UJfdXLuv57f1ngbVrMxt+YGwtbzKD47hvE
jKXyukxUs/8/zLGBdApaMHaomfxn1CduXKSiMJPyRYaMC7zLWHU+Bc/bhOg5BPKc
4UQmK5NdzuZhE1jdRTg5M2Zx6lvUDkAylIO2Dy0qKZ60
-----END CERTIFICATE-----
